Archive member included to satisfy reference by file (symbol)

/usr/lib/gcc/arm-none-eabi/9.2.1/../../../arm-none-eabi/lib/thumb/v6-m/nofp/libc_nano.a(lib_a-memset.o)
                              build/main.o (memset)
/usr/lib/gcc/arm-none-eabi/9.2.1/thumb/v6-m/nofp/libgcc.a(_udivsi3.o)
                              build/system_stm32f0xx.o (__aeabi_uidiv)
/usr/lib/gcc/arm-none-eabi/9.2.1/thumb/v6-m/nofp/libgcc.a(_dvmd_tls.o)
                              /usr/lib/gcc/arm-none-eabi/9.2.1/thumb/v6-m/nofp/libgcc.a(_udivsi3.o) (__aeabi_idiv0)

Memory Configuration

Name             Origin             Length             Attributes
RAM              0x0000000020000000 0x0000000000001800 xrw
ROM              0x0000000008000000 0x0000000000009000 xr
*default*        0x0000000000000000 0xffffffffffffffff

Linker script and memory map

LOAD build/startup.o
LOAD build/main.o
LOAD build/uart.o
LOAD build/system_stm32f0xx.o
LOAD build/stm32f0xx_it.o
LOAD build/stm32f0xx_hal_msp.o
LOAD build/stm32f0xx_hal.o
LOAD build/stm32f0xx_hal_can.o
LOAD build/stm32f0xx_hal_cortex.o
LOAD build/stm32f0xx_hal_gpio.o
LOAD build/stm32f0xx_hal_rcc.o
LOAD /usr/lib/gcc/arm-none-eabi/9.2.1/../../../arm-none-eabi/lib/thumb/v6-m/nofp/libm.a
LOAD /usr/lib/gcc/arm-none-eabi/9.2.1/../../../arm-none-eabi/lib/thumb/v6-m/nofp/libc_nano.a
LOAD /usr/lib/gcc/arm-none-eabi/9.2.1/thumb/v6-m/nofp/libgcc.a
LOAD /usr/lib/gcc/arm-none-eabi/9.2.1/../../../arm-none-eabi/lib/thumb/v6-m/nofp/libnosys.a
                0x0000000000000400                _Min_Heap_Size = 0x400
                0x0000000000000400                _Min_Stack_Size = 0x400

.isr_vectors    0x0000000008000000       0xc0
                0x0000000008000000                . = ALIGN (0x4)
 *(.isr_vectors)
 .isr_vectors   0x0000000008000000       0xc0 build/startup.o
                0x0000000008000000                vectors
 *(.isr_vectors)
                0x00000000080000c0                . = ALIGN (0x4)

.text           0x00000000080000c0     0x3b1c
                0x00000000080000c0                . = ALIGN (0x4)
 *(.text)
 .text          0x00000000080000c0        0x0 build/startup.o
 .text          0x00000000080000c0        0x0 build/main.o
 .text          0x00000000080000c0        0x0 build/uart.o
 .text          0x00000000080000c0        0x0 build/system_stm32f0xx.o
 .text          0x00000000080000c0        0x0 build/stm32f0xx_it.o
 .text          0x00000000080000c0        0x0 build/stm32f0xx_hal_msp.o
 .text          0x00000000080000c0        0x0 build/stm32f0xx_hal.o
 .text          0x00000000080000c0        0x0 build/stm32f0xx_hal_can.o
 .text          0x00000000080000c0        0x0 build/stm32f0xx_hal_cortex.o
 .text          0x00000000080000c0        0x0 build/stm32f0xx_hal_gpio.o
 .text          0x00000000080000c0        0x0 build/stm32f0xx_hal_rcc.o
 .text          0x00000000080000c0       0xa8 /usr/lib/gcc/arm-none-eabi/9.2.1/../../../arm-none-eabi/lib/thumb/v6-m/nofp/libc_nano.a(lib_a-memset.o)
                0x00000000080000c0                memset
 .text          0x0000000008000168      0x114 /usr/lib/gcc/arm-none-eabi/9.2.1/thumb/v6-m/nofp/libgcc.a(_udivsi3.o)
                0x0000000008000168                __udivsi3
                0x0000000008000168                __aeabi_uidiv
                0x0000000008000274                __aeabi_uidivmod
 .text          0x000000000800027c        0x4 /usr/lib/gcc/arm-none-eabi/9.2.1/thumb/v6-m/nofp/libgcc.a(_dvmd_tls.o)
                0x000000000800027c                __aeabi_ldiv0
                0x000000000800027c                __aeabi_idiv0
 *(.text*)
 .text._Z5_initv
                0x0000000008000280        0xa build/startup.o
                0x0000000008000280                _init()
 .text._Z5_finiv
                0x000000000800028a        0xa build/startup.o
                0x000000000800028a                _fini()
 .text._Z17__libc_init_arrayv
                0x0000000008000294       0x74 build/startup.o
                0x0000000008000294                __libc_init_array()
 .text._Z17__libc_fini_arrayv
                0x0000000008000308       0x44 build/startup.o
                0x0000000008000308                __libc_fini_array()
 .text.Reset_Handler
                0x000000000800034c       0x40 build/startup.o
                0x000000000800034c                Reset_Handler
 .text.Default_Handler
                0x000000000800038c        0x6 build/startup.o
                0x000000000800038c                TIM1_CC_IRQHandler
                0x000000000800038c                TSC_IRQHandler
                0x000000000800038c                I2C1_IRQHandler
                0x000000000800038c                RCC_CRS_IRQHandler
                0x000000000800038c                SPI1_IRQHandler
                0x000000000800038c                EXTI2_3_IRQHandler
                0x000000000800038c                ADC1_IRQHandler
                0x000000000800038c                TIM17_IRQHandler
                0x000000000800038c                RTC_IRQHandler
                0x000000000800038c                PVD_VDDIO2_IRQHandler
                0x000000000800038c                TIM16_IRQHandler
                0x000000000800038c                TIM3_IRQHandler
                0x000000000800038c                EXTI4_15_IRQHandler
                0x000000000800038c                DMA1_Channel1_IRQHandler
                0x000000000800038c                Default_Handler
                0x000000000800038c                TIM14_IRQHandler
                0x000000000800038c                DMA1_Channel4_5_IRQHandler
                0x000000000800038c                EXTI0_1_IRQHandler
                0x000000000800038c                USB_IRQHandler
                0x000000000800038c                SPI2_IRQHandler
                0x000000000800038c                WWDG_IRQHandler
                0x000000000800038c                TIM2_IRQHandler
                0x000000000800038c                DMA1_Channel2_3_IRQHandler
                0x000000000800038c                FLASH_IRQHandler
                0x000000000800038c                USART1_IRQHandler
                0x000000000800038c                TIM1_BRK_UP_TRG_COM_IRQHandler
 *fill*         0x0000000008000392        0x2 
 .text.HAL_CAN_RxFifo0MsgPendingCallback
                0x0000000008000394       0x44 build/main.o
                0x0000000008000394                HAL_CAN_RxFifo0MsgPendingCallback
 .text.HAL_CAN_ErrorCallback
                0x00000000080003d8       0x40 build/main.o
                0x00000000080003d8                HAL_CAN_ErrorCallback
 .text.main     0x0000000008000418       0xf4 build/main.o
                0x0000000008000418                main
 .text._Z18SystemClock_Configv
                0x000000000800050c       0xa0 build/main.o
                0x000000000800050c                SystemClock_Config()
 .text._ZL11MX_CAN_Initv
                0x00000000080005ac       0xac build/main.o
 .text._ZL12MX_GPIO_Initv
                0x0000000008000658       0x68 build/main.o
 .text.Error_Handler
                0x00000000080006c0        0xa build/main.o
                0x00000000080006c0                Error_Handler
 *fill*         0x00000000080006ca        0x2 
 .text._Z41__static_initialization_and_destruction_0ii
                0x00000000080006cc       0x30 build/main.o
 .text._GLOBAL__sub_I_hcan
                0x00000000080006fc       0x18 build/main.o
 .text.__NVIC_EnableIRQ
                0x0000000008000714       0x34 build/uart.o
 .text._ZN4UartC2Ev
                0x0000000008000748       0x2c build/uart.o
                0x0000000008000748                Uart::Uart()
                0x0000000008000748                Uart::Uart()
 .text._ZN4Uart8sendByteEh
                0x0000000008000774       0x38 build/uart.o
                0x0000000008000774                Uart::sendByte(unsigned char)
 .text._ZN4Uart7sendStrEPKc
                0x00000000080007ac       0x2e build/uart.o
                0x00000000080007ac                Uart::sendStr(char const*)
 *fill*         0x00000000080007da        0x2 
 .text._ZN4Uart4initEv
                0x00000000080007dc       0xd8 build/uart.o
                0x00000000080007dc                Uart::init()
 .text.USART2_IRQHandler
                0x00000000080008b4       0x34 build/uart.o
                0x00000000080008b4                USART2_IRQHandler
 .text.SystemInit
                0x00000000080008e8        0xa build/system_stm32f0xx.o
                0x00000000080008e8                SystemInit
 *fill*         0x00000000080008f2        0x2 
 .text.SystemCoreClockUpdate
                0x00000000080008f4      0x10c build/system_stm32f0xx.o
                0x00000000080008f4                SystemCoreClockUpdate
 .text.NMI_Handler
                0x0000000008000a00        0x6 build/stm32f0xx_it.o
                0x0000000008000a00                NMI_Handler
 .text.HardFault_Handler
                0x0000000008000a06        0x6 build/stm32f0xx_it.o
                0x0000000008000a06                HardFault_Handler
 .text.SVC_Handler
                0x0000000008000a0c        0xa build/stm32f0xx_it.o
                0x0000000008000a0c                SVC_Handler
 .text.PendSV_Handler
                0x0000000008000a16        0xa build/stm32f0xx_it.o
                0x0000000008000a16                PendSV_Handler
 .text.SysTick_Handler
                0x0000000008000a20        0xe build/stm32f0xx_it.o
                0x0000000008000a20                SysTick_Handler
 *fill*         0x0000000008000a2e        0x2 
 .text.CEC_CAN_IRQHandler
                0x0000000008000a30       0x18 build/stm32f0xx_it.o
                0x0000000008000a30                CEC_CAN_IRQHandler
 .text.HAL_MspInit
                0x0000000008000a48       0x58 build/stm32f0xx_hal_msp.o
                0x0000000008000a48                HAL_MspInit
 .text.HAL_CAN_MspInit
                0x0000000008000aa0       0xf8 build/stm32f0xx_hal_msp.o
                0x0000000008000aa0                HAL_CAN_MspInit
 .text.HAL_CAN_MspDeInit
                0x0000000008000b98       0x5c build/stm32f0xx_hal_msp.o
                0x0000000008000b98                HAL_CAN_MspDeInit
 .text.HAL_Init
                0x0000000008000bf4       0x28 build/stm32f0xx_hal.o
                0x0000000008000bf4                HAL_Init
 .text.HAL_DeInit
                0x0000000008000c1c       0x40 build/stm32f0xx_hal.o
                0x0000000008000c1c                HAL_DeInit
 .text.HAL_MspInit
                0x0000000008000c5c        0xa build/stm32f0xx_hal.o
 .text.HAL_MspDeInit
                0x0000000008000c66        0xa build/stm32f0xx_hal.o
                0x0000000008000c66                HAL_MspDeInit
 .text.HAL_InitTick
                0x0000000008000c70       0x70 build/stm32f0xx_hal.o
                0x0000000008000c70                HAL_InitTick
 .text.HAL_IncTick
                0x0000000008000ce0       0x24 build/stm32f0xx_hal.o
                0x0000000008000ce0                HAL_IncTick
 .text.HAL_GetTick
                0x0000000008000d04       0x14 build/stm32f0xx_hal.o
                0x0000000008000d04                HAL_GetTick
 .text.HAL_GetTickPrio
                0x0000000008000d18       0x14 build/stm32f0xx_hal.o
                0x0000000008000d18                HAL_GetTickPrio
 .text.HAL_SetTickFreq
                0x0000000008000d2c       0x6c build/stm32f0xx_hal.o
                0x0000000008000d2c                HAL_SetTickFreq
 .text.HAL_GetTickFreq
                0x0000000008000d98       0x14 build/stm32f0xx_hal.o
                0x0000000008000d98                HAL_GetTickFreq
 .text.HAL_Delay
                0x0000000008000dac       0x4c build/stm32f0xx_hal.o
                0x0000000008000dac                HAL_Delay
 .text.HAL_SuspendTick
                0x0000000008000df8       0x1c build/stm32f0xx_hal.o
                0x0000000008000df8                HAL_SuspendTick
 .text.HAL_ResumeTick
                0x0000000008000e14       0x1c build/stm32f0xx_hal.o
                0x0000000008000e14                HAL_ResumeTick
 .text.HAL_GetHalVersion
                0x0000000008000e30       0x10 build/stm32f0xx_hal.o
                0x0000000008000e30                HAL_GetHalVersion
 .text.HAL_GetREVID
                0x0000000008000e40       0x14 build/stm32f0xx_hal.o
                0x0000000008000e40                HAL_GetREVID
 .text.HAL_GetDEVID
                0x0000000008000e54       0x18 build/stm32f0xx_hal.o
                0x0000000008000e54                HAL_GetDEVID
 .text.HAL_GetUIDw0
                0x0000000008000e6c       0x14 build/stm32f0xx_hal.o
                0x0000000008000e6c                HAL_GetUIDw0
 .text.HAL_GetUIDw1
                0x0000000008000e80       0x14 build/stm32f0xx_hal.o
                0x0000000008000e80                HAL_GetUIDw1
 .text.HAL_GetUIDw2
                0x0000000008000e94       0x14 build/stm32f0xx_hal.o
                0x0000000008000e94                HAL_GetUIDw2
 .text.HAL_DBGMCU_EnableDBGStopMode
                0x0000000008000ea8       0x1c build/stm32f0xx_hal.o
                0x0000000008000ea8                HAL_DBGMCU_EnableDBGStopMode
 .text.HAL_DBGMCU_DisableDBGStopMode
                0x0000000008000ec4       0x1c build/stm32f0xx_hal.o
                0x0000000008000ec4                HAL_DBGMCU_DisableDBGStopMode
 .text.HAL_DBGMCU_EnableDBGStandbyMode
                0x0000000008000ee0       0x1c build/stm32f0xx_hal.o
                0x0000000008000ee0                HAL_DBGMCU_EnableDBGStandbyMode
 .text.HAL_DBGMCU_DisableDBGStandbyMode
                0x0000000008000efc       0x1c build/stm32f0xx_hal.o
                0x0000000008000efc                HAL_DBGMCU_DisableDBGStandbyMode
 .text.HAL_CAN_Init
                0x0000000008000f18      0x222 build/stm32f0xx_hal_can.o
                0x0000000008000f18                HAL_CAN_Init
 .text.HAL_CAN_DeInit
                0x000000000800113a       0x4c build/stm32f0xx_hal_can.o
                0x000000000800113a                HAL_CAN_DeInit
 .text.HAL_CAN_MspInit
                0x0000000008001186       0x10 build/stm32f0xx_hal_can.o
 .text.HAL_CAN_MspDeInit
                0x0000000008001196       0x10 build/stm32f0xx_hal_can.o
 .text.HAL_CAN_ConfigFilter
                0x00000000080011a6      0x1e4 build/stm32f0xx_hal_can.o
                0x00000000080011a6                HAL_CAN_ConfigFilter
 .text.HAL_CAN_Start
                0x000000000800138a       0xa4 build/stm32f0xx_hal_can.o
                0x000000000800138a                HAL_CAN_Start
 .text.HAL_CAN_Stop
                0x000000000800142e       0xae build/stm32f0xx_hal_can.o
                0x000000000800142e                HAL_CAN_Stop
 .text.HAL_CAN_RequestSleep
                0x00000000080014dc       0x52 build/stm32f0xx_hal_can.o
                0x00000000080014dc                HAL_CAN_RequestSleep
 *fill*         0x000000000800152e        0x2 
 .text.HAL_CAN_WakeUp
                0x0000000008001530       0x9c build/stm32f0xx_hal_can.o
                0x0000000008001530                HAL_CAN_WakeUp
 .text.HAL_CAN_IsSleepActive
                0x00000000080015cc       0x4c build/stm32f0xx_hal_can.o
                0x00000000080015cc                HAL_CAN_IsSleepActive
 .text.HAL_CAN_AddTxMessage
                0x0000000008001618      0x1bc build/stm32f0xx_hal_can.o
                0x0000000008001618                HAL_CAN_AddTxMessage
 .text.HAL_CAN_AbortTxRequest
                0x00000000080017d4       0x90 build/stm32f0xx_hal_can.o
                0x00000000080017d4                HAL_CAN_AbortTxRequest
 .text.HAL_CAN_GetTxMailboxesFreeLevel
                0x0000000008001864       0x88 build/stm32f0xx_hal_can.o
                0x0000000008001864                HAL_CAN_GetTxMailboxesFreeLevel
 .text.HAL_CAN_IsTxMessagePending
                0x00000000080018ec       0x56 build/stm32f0xx_hal_can.o
                0x00000000080018ec                HAL_CAN_IsTxMessagePending
 .text.HAL_CAN_GetTxTimestamp
                0x0000000008001942       0x6a build/stm32f0xx_hal_can.o
                0x0000000008001942                HAL_CAN_GetTxTimestamp
 .text.HAL_CAN_GetRxMessage
                0x00000000080019ac      0x248 build/stm32f0xx_hal_can.o
                0x00000000080019ac                HAL_CAN_GetRxMessage
 .text.HAL_CAN_GetRxFifoFillLevel
                0x0000000008001bf4       0x56 build/stm32f0xx_hal_can.o
                0x0000000008001bf4                HAL_CAN_GetRxFifoFillLevel
 .text.HAL_CAN_ActivateNotification
                0x0000000008001c4a       0x54 build/stm32f0xx_hal_can.o
                0x0000000008001c4a                HAL_CAN_ActivateNotification
 .text.HAL_CAN_DeactivateNotification
                0x0000000008001c9e       0x56 build/stm32f0xx_hal_can.o
                0x0000000008001c9e                HAL_CAN_DeactivateNotification
 .text.HAL_CAN_IRQHandler
                0x0000000008001cf4      0x378 build/stm32f0xx_hal_can.o
                0x0000000008001cf4                HAL_CAN_IRQHandler
 .text.HAL_CAN_TxMailbox0CompleteCallback
                0x000000000800206c       0x10 build/stm32f0xx_hal_can.o
                0x000000000800206c                HAL_CAN_TxMailbox0CompleteCallback
 .text.HAL_CAN_TxMailbox1CompleteCallback
                0x000000000800207c       0x10 build/stm32f0xx_hal_can.o
                0x000000000800207c                HAL_CAN_TxMailbox1CompleteCallback
 .text.HAL_CAN_TxMailbox2CompleteCallback
                0x000000000800208c       0x10 build/stm32f0xx_hal_can.o
                0x000000000800208c                HAL_CAN_TxMailbox2CompleteCallback
 .text.HAL_CAN_TxMailbox0AbortCallback
                0x000000000800209c       0x10 build/stm32f0xx_hal_can.o
                0x000000000800209c                HAL_CAN_TxMailbox0AbortCallback
 .text.HAL_CAN_TxMailbox1AbortCallback
                0x00000000080020ac       0x10 build/stm32f0xx_hal_can.o
                0x00000000080020ac                HAL_CAN_TxMailbox1AbortCallback
 .text.HAL_CAN_TxMailbox2AbortCallback
                0x00000000080020bc       0x10 build/stm32f0xx_hal_can.o
                0x00000000080020bc                HAL_CAN_TxMailbox2AbortCallback
 .text.HAL_CAN_RxFifo0MsgPendingCallback
                0x00000000080020cc       0x10 build/stm32f0xx_hal_can.o
 .text.HAL_CAN_RxFifo0FullCallback
                0x00000000080020dc       0x10 build/stm32f0xx_hal_can.o
                0x00000000080020dc                HAL_CAN_RxFifo0FullCallback
 .text.HAL_CAN_RxFifo1MsgPendingCallback
                0x00000000080020ec       0x10 build/stm32f0xx_hal_can.o
                0x00000000080020ec                HAL_CAN_RxFifo1MsgPendingCallback
 .text.HAL_CAN_RxFifo1FullCallback
                0x00000000080020fc       0x10 build/stm32f0xx_hal_can.o
                0x00000000080020fc                HAL_CAN_RxFifo1FullCallback
 .text.HAL_CAN_SleepCallback
                0x000000000800210c       0x10 build/stm32f0xx_hal_can.o
                0x000000000800210c                HAL_CAN_SleepCallback
 .text.HAL_CAN_WakeUpFromRxMsgCallback
                0x000000000800211c       0x10 build/stm32f0xx_hal_can.o
                0x000000000800211c                HAL_CAN_WakeUpFromRxMsgCallback
 .text.HAL_CAN_ErrorCallback
                0x000000000800212c       0x10 build/stm32f0xx_hal_can.o
 .text.HAL_CAN_GetState
                0x000000000800213c       0x6e build/stm32f0xx_hal_can.o
                0x000000000800213c                HAL_CAN_GetState
 .text.HAL_CAN_GetError
                0x00000000080021aa       0x14 build/stm32f0xx_hal_can.o
                0x00000000080021aa                HAL_CAN_GetError
 .text.HAL_CAN_ResetError
                0x00000000080021be       0x5a build/stm32f0xx_hal_can.o
                0x00000000080021be                HAL_CAN_ResetError
 .text.__NVIC_EnableIRQ
                0x0000000008002218       0x34 build/stm32f0xx_hal_cortex.o
 .text.__NVIC_DisableIRQ
                0x000000000800224c       0x44 build/stm32f0xx_hal_cortex.o
 .text.__NVIC_GetPendingIRQ
                0x0000000008002290       0x40 build/stm32f0xx_hal_cortex.o
 .text.__NVIC_SetPendingIRQ
                0x00000000080022d0       0x38 build/stm32f0xx_hal_cortex.o
 .text.__NVIC_ClearPendingIRQ
                0x0000000008002308       0x38 build/stm32f0xx_hal_cortex.o
 .text.__NVIC_SetPriority
                0x0000000008002340       0xdc build/stm32f0xx_hal_cortex.o
 .text.__NVIC_GetPriority
                0x000000000800241c       0x7c build/stm32f0xx_hal_cortex.o
 .text.__NVIC_SystemReset
                0x0000000008002498       0x24 build/stm32f0xx_hal_cortex.o
 .text.SysTick_Config
                0x00000000080024bc       0x48 build/stm32f0xx_hal_cortex.o
 .text.HAL_NVIC_SetPriority
                0x0000000008002504       0x2a build/stm32f0xx_hal_cortex.o
                0x0000000008002504                HAL_NVIC_SetPriority
 .text.HAL_NVIC_EnableIRQ
                0x000000000800252e       0x20 build/stm32f0xx_hal_cortex.o
                0x000000000800252e                HAL_NVIC_EnableIRQ
 .text.HAL_NVIC_DisableIRQ
                0x000000000800254e       0x20 build/stm32f0xx_hal_cortex.o
                0x000000000800254e                HAL_NVIC_DisableIRQ
 .text.HAL_NVIC_SystemReset
                0x000000000800256e        0x8 build/stm32f0xx_hal_cortex.o
                0x000000000800256e                HAL_NVIC_SystemReset
 .text.HAL_SYSTICK_Config
                0x0000000008002576       0x1a build/stm32f0xx_hal_cortex.o
                0x0000000008002576                HAL_SYSTICK_Config
 .text.HAL_NVIC_GetPriority
                0x0000000008002590       0x22 build/stm32f0xx_hal_cortex.o
                0x0000000008002590                HAL_NVIC_GetPriority
 .text.HAL_NVIC_SetPendingIRQ
                0x00000000080025b2       0x20 build/stm32f0xx_hal_cortex.o
                0x00000000080025b2                HAL_NVIC_SetPendingIRQ
 .text.HAL_NVIC_GetPendingIRQ
                0x00000000080025d2       0x22 build/stm32f0xx_hal_cortex.o
                0x00000000080025d2                HAL_NVIC_GetPendingIRQ
 .text.HAL_NVIC_ClearPendingIRQ
                0x00000000080025f4       0x20 build/stm32f0xx_hal_cortex.o
                0x00000000080025f4                HAL_NVIC_ClearPendingIRQ
 .text.HAL_SYSTICK_CLKSourceConfig
                0x0000000008002614       0x34 build/stm32f0xx_hal_cortex.o
                0x0000000008002614                HAL_SYSTICK_CLKSourceConfig
 .text.HAL_SYSTICK_IRQHandler
                0x0000000008002648        0xe build/stm32f0xx_hal_cortex.o
                0x0000000008002648                HAL_SYSTICK_IRQHandler
 .text.HAL_SYSTICK_Callback
                0x0000000008002656        0xa build/stm32f0xx_hal_cortex.o
                0x0000000008002656                HAL_SYSTICK_Callback
 .text.HAL_GPIO_Init
                0x0000000008002660      0x2d0 build/stm32f0xx_hal_gpio.o
                0x0000000008002660                HAL_GPIO_Init
 .text.HAL_GPIO_DeInit
                0x0000000008002930      0x18c build/stm32f0xx_hal_gpio.o
                0x0000000008002930                HAL_GPIO_DeInit
 .text.HAL_GPIO_ReadPin
                0x0000000008002abc       0x42 build/stm32f0xx_hal_gpio.o
                0x0000000008002abc                HAL_GPIO_ReadPin
 .text.HAL_GPIO_WritePin
                0x0000000008002afe       0x3a build/stm32f0xx_hal_gpio.o
                0x0000000008002afe                HAL_GPIO_WritePin
 .text.HAL_GPIO_TogglePin
                0x0000000008002b38       0x36 build/stm32f0xx_hal_gpio.o
                0x0000000008002b38                HAL_GPIO_TogglePin
 .text.HAL_GPIO_LockPin
                0x0000000008002b6e       0x5a build/stm32f0xx_hal_gpio.o
                0x0000000008002b6e                HAL_GPIO_LockPin
 .text.HAL_GPIO_EXTI_IRQHandler
                0x0000000008002bc8       0x40 build/stm32f0xx_hal_gpio.o
                0x0000000008002bc8                HAL_GPIO_EXTI_IRQHandler
 .text.HAL_GPIO_EXTI_Callback
                0x0000000008002c08       0x14 build/stm32f0xx_hal_gpio.o
                0x0000000008002c08                HAL_GPIO_EXTI_Callback
 .text.HAL_RCC_DeInit
                0x0000000008002c1c      0x144 build/stm32f0xx_hal_rcc.o
                0x0000000008002c1c                HAL_RCC_DeInit
 .text.HAL_RCC_OscConfig
                0x0000000008002d60      0x84c build/stm32f0xx_hal_rcc.o
                0x0000000008002d60                HAL_RCC_OscConfig
 .text.HAL_RCC_ClockConfig
                0x00000000080035ac      0x204 build/stm32f0xx_hal_rcc.o
                0x00000000080035ac                HAL_RCC_ClockConfig
 .text.HAL_RCC_MCOConfig
                0x00000000080037b0       0x80 build/stm32f0xx_hal_rcc.o
                0x00000000080037b0                HAL_RCC_MCOConfig
 .text.HAL_RCC_EnableCSS
                0x0000000008003830       0x1c build/stm32f0xx_hal_rcc.o
                0x0000000008003830                HAL_RCC_EnableCSS
 .text.HAL_RCC_DisableCSS
                0x000000000800384c       0x20 build/stm32f0xx_hal_rcc.o
                0x000000000800384c                HAL_RCC_DisableCSS
 .text.HAL_RCC_GetSysClockFreq
                0x000000000800386c      0x100 build/stm32f0xx_hal_rcc.o
                0x000000000800386c                HAL_RCC_GetSysClockFreq
 .text.HAL_RCC_GetHCLKFreq
                0x000000000800396c       0x14 build/stm32f0xx_hal_rcc.o
                0x000000000800396c                HAL_RCC_GetHCLKFreq
 .text.HAL_RCC_GetPCLK1Freq
                0x0000000008003980       0x2c build/stm32f0xx_hal_rcc.o
                0x0000000008003980                HAL_RCC_GetPCLK1Freq
 .text.HAL_RCC_GetOscConfig
                0x00000000080039ac      0x1a0 build/stm32f0xx_hal_rcc.o
                0x00000000080039ac                HAL_RCC_GetOscConfig
 .text.HAL_RCC_GetClockConfig
                0x0000000008003b4c       0x54 build/stm32f0xx_hal_rcc.o
                0x0000000008003b4c                HAL_RCC_GetClockConfig
 .text.HAL_RCC_NMI_IRQHandler
                0x0000000008003ba0       0x30 build/stm32f0xx_hal_rcc.o
                0x0000000008003ba0                HAL_RCC_NMI_IRQHandler
 .text.HAL_RCC_CSSCallback
                0x0000000008003bd0        0xa build/stm32f0xx_hal_rcc.o
                0x0000000008003bd0                HAL_RCC_CSSCallback
                0x0000000008003bdc                . = ALIGN (0x4)
 *fill*         0x0000000008003bda        0x2 

.vfp11_veneer   0x0000000008003bdc        0x0
 .vfp11_veneer  0x0000000008003bdc        0x0 linker stubs

.v4_bx          0x0000000008003bdc        0x0
 .v4_bx         0x0000000008003bdc        0x0 linker stubs

.iplt           0x0000000008003bdc        0x0
 .iplt          0x0000000008003bdc        0x0 build/startup.o

.rodata         0x0000000008003bdc       0x3c
                0x0000000008003bdc                . = ALIGN (0x4)
 *(.rodata)
 .rodata        0x0000000008003bdc        0x4 build/main.o
 .rodata        0x0000000008003be0       0x18 build/system_stm32f0xx.o
                0x0000000008003be0                AHBPrescTable
                0x0000000008003bf0                APBPrescTable
 .rodata        0x0000000008003bf8       0x20 build/stm32f0xx_hal_rcc.o
 *(.rodata*)
 *(vtable)
 *(.glue_7)
 .glue_7        0x0000000008003c18        0x0 linker stubs
 *(.glue_7t)
 .glue_7t       0x0000000008003c18        0x0 linker stubs
                0x0000000008003c18                . = ALIGN (0x4)
 *(.init)
 *(.fini)
                0x0000000008003c18                . = ALIGN (0x4)
                0x0000000008003c18                _etext = .
                0x0000000008003c18                _sidata = LOADADDR (.data)

.rel.dyn        0x0000000008003c18        0x0
 .rel.iplt      0x0000000008003c18        0x0 build/startup.o
                0x0000000008003c18                . = ALIGN (0x8)

.stack          0x0000000020000000      0x400
                0x0000000020000000                . = ALIGN (0x8)
                0x0000000020000000                _stack_begin = .
                0x0000000020000400                _StackLimit = (_stack_begin + _Min_Stack_Size)
                0x0000000020000400                . = (. + _Min_Stack_Size)
 *fill*         0x0000000020000000      0x400 
                0x0000000020000400                _StackTop = .
                0x0000000020000400                . = ALIGN (0x8)
                0x0000000020000400                PROVIDE (_estack = _StackTop)

.data           0x0000000020000400        0xc load address 0x0000000008003c18
                0x0000000020000400                . = ALIGN (0x4)
                0x0000000020000400                _sdata = .
 *(.data)
 .data          0x0000000020000400        0x0 build/startup.o
 .data          0x0000000020000400        0x0 build/main.o
 .data          0x0000000020000400        0x0 build/uart.o
 .data          0x0000000020000400        0x4 build/system_stm32f0xx.o
                0x0000000020000400                SystemCoreClock
 .data          0x0000000020000404        0x0 build/stm32f0xx_it.o
 .data          0x0000000020000404        0x0 build/stm32f0xx_hal_msp.o
 .data          0x0000000020000404        0x5 build/stm32f0xx_hal.o
                0x0000000020000404                uwTickPrio
                0x0000000020000408                uwTickFreq
 .data          0x0000000020000409        0x0 build/stm32f0xx_hal_can.o
 .data          0x0000000020000409        0x0 build/stm32f0xx_hal_cortex.o
 .data          0x0000000020000409        0x0 build/stm32f0xx_hal_gpio.o
 .data          0x0000000020000409        0x0 build/stm32f0xx_hal_rcc.o
 .data          0x0000000020000409        0x0 /usr/lib/gcc/arm-none-eabi/9.2.1/../../../arm-none-eabi/lib/thumb/v6-m/nofp/libc_nano.a(lib_a-memset.o)
 .data          0x0000000020000409        0x0 /usr/lib/gcc/arm-none-eabi/9.2.1/thumb/v6-m/nofp/libgcc.a(_udivsi3.o)
 .data          0x0000000020000409        0x0 /usr/lib/gcc/arm-none-eabi/9.2.1/thumb/v6-m/nofp/libgcc.a(_dvmd_tls.o)
 *(.data*)
                0x000000002000040c                . = ALIGN (0x4)
 *fill*         0x0000000020000409        0x3 
                0x000000002000040c                _edata = .

.igot.plt       0x000000002000040c        0x0 load address 0x0000000008003c24
 .igot.plt      0x000000002000040c        0x0 build/startup.o

.init_array     0x000000002000040c        0x4 load address 0x0000000008003c24
 .init_array    0x000000002000040c        0x4 build/main.o
                0x0000000020000410                . = ALIGN (0x4)

.bss            0x0000000020000410       0x7c load address 0x0000000008003c28
                0x0000000020000410                _sbss = .
                0x0000000020000410                __bss_start__ = _sbss
 *(.bss)
 .bss           0x0000000020000410        0x0 build/startup.o
 .bss           0x0000000020000410       0x74 build/main.o
                0x0000000020000410                hcan
                0x0000000020000438                uart
                0x000000002000043c                TxHeader
                0x0000000020000454                RxHeader
                0x0000000020000470                TxData
                0x0000000020000478                RxData
                0x0000000020000480                TxMailbox
 .bss           0x0000000020000484        0x4 build/uart.o
                0x0000000020000484                Uart::pThis
 .bss           0x0000000020000488        0x0 build/system_stm32f0xx.o
 .bss           0x0000000020000488        0x0 build/stm32f0xx_it.o
 .bss           0x0000000020000488        0x0 build/stm32f0xx_hal_msp.o
 .bss           0x0000000020000488        0x4 build/stm32f0xx_hal.o
                0x0000000020000488                uwTick
 .bss           0x000000002000048c        0x0 build/stm32f0xx_hal_can.o
 .bss           0x000000002000048c        0x0 build/stm32f0xx_hal_cortex.o
 .bss           0x000000002000048c        0x0 build/stm32f0xx_hal_gpio.o
 .bss           0x000000002000048c        0x0 build/stm32f0xx_hal_rcc.o
 .bss           0x000000002000048c        0x0 /usr/lib/gcc/arm-none-eabi/9.2.1/../../../arm-none-eabi/lib/thumb/v6-m/nofp/libc_nano.a(lib_a-memset.o)
 .bss           0x000000002000048c        0x0 /usr/lib/gcc/arm-none-eabi/9.2.1/thumb/v6-m/nofp/libgcc.a(_udivsi3.o)
 .bss           0x000000002000048c        0x0 /usr/lib/gcc/arm-none-eabi/9.2.1/thumb/v6-m/nofp/libgcc.a(_dvmd_tls.o)
 *(.bss*)
 *(COMMON)
                0x000000002000048c                . = ALIGN (0x4)
                0x000000002000048c                _ebss = .
                0x000000002000048c                __bss_end__ = _ebss

.heap           0x000000002000048c      0x400 load address 0x0000000008003c28
                0x000000002000048c                . = ALIGN (0x4)
                0x000000002000048c                _heap_start = __bss_end__
                [!provide]                        PROVIDE (end = .)
                0x000000002000088c                _heap_limit = (_heap_start + _Min_Heap_Size)
                0x000000002000088c                . = (. + _Min_Heap_Size)
 *fill*         0x000000002000048c      0x400 
                [!provide]                        PROVIDE (_heap_end = .)
OUTPUT(build/main.elf elf32-littlearm)
LOAD linker stubs

.debug_info     0x0000000000000000     0x7922
 .debug_info    0x0000000000000000      0x1df build/startup.o
 .debug_info    0x00000000000001df      0xf48 build/main.o
 .debug_info    0x0000000000001127      0x793 build/uart.o
 .debug_info    0x00000000000018ba      0x2cb build/system_stm32f0xx.o
 .debug_info    0x0000000000001b85      0x7fa build/stm32f0xx_it.o
 .debug_info    0x000000000000237f      0xbbe build/stm32f0xx_hal_msp.o
 .debug_info    0x0000000000002f3d      0x9dc build/stm32f0xx_hal.o
 .debug_info    0x0000000000003919     0x1272 build/stm32f0xx_hal_can.o
 .debug_info    0x0000000000004b8b      0xa05 build/stm32f0xx_hal_cortex.o
 .debug_info    0x0000000000005590      0x934 build/stm32f0xx_hal_gpio.o
 .debug_info    0x0000000000005ec4      0xaf1 build/stm32f0xx_hal_rcc.o
 .debug_info    0x00000000000069b5      0xf21 /usr/lib/gcc/arm-none-eabi/9.2.1/../../../arm-none-eabi/lib/thumb/v6-m/nofp/libc_nano.a(lib_a-memset.o)
 .debug_info    0x00000000000078d6       0x26 /usr/lib/gcc/arm-none-eabi/9.2.1/thumb/v6-m/nofp/libgcc.a(_udivsi3.o)
 .debug_info    0x00000000000078fc       0x26 /usr/lib/gcc/arm-none-eabi/9.2.1/thumb/v6-m/nofp/libgcc.a(_dvmd_tls.o)

.debug_abbrev   0x0000000000000000     0x1a23
 .debug_abbrev  0x0000000000000000      0x109 build/startup.o
 .debug_abbrev  0x0000000000000109      0x37a build/main.o
 .debug_abbrev  0x0000000000000483      0x29a build/uart.o
 .debug_abbrev  0x000000000000071d      0x138 build/system_stm32f0xx.o
 .debug_abbrev  0x0000000000000855      0x19a build/stm32f0xx_it.o
 .debug_abbrev  0x00000000000009ef      0x21d build/stm32f0xx_hal_msp.o
 .debug_abbrev  0x0000000000000c0c      0x269 build/stm32f0xx_hal.o
 .debug_abbrev  0x0000000000000e75      0x223 build/stm32f0xx_hal_can.o
 .debug_abbrev  0x0000000000001098      0x2df build/stm32f0xx_hal_cortex.o
 .debug_abbrev  0x0000000000001377      0x230 build/stm32f0xx_hal_gpio.o
 .debug_abbrev  0x00000000000015a7      0x27b build/stm32f0xx_hal_rcc.o
 .debug_abbrev  0x0000000000001822      0x1d9 /usr/lib/gcc/arm-none-eabi/9.2.1/../../../arm-none-eabi/lib/thumb/v6-m/nofp/libc_nano.a(lib_a-memset.o)
 .debug_abbrev  0x00000000000019fb       0x14 /usr/lib/gcc/arm-none-eabi/9.2.1/thumb/v6-m/nofp/libgcc.a(_udivsi3.o)
 .debug_abbrev  0x0000000000001a0f       0x14 /usr/lib/gcc/arm-none-eabi/9.2.1/thumb/v6-m/nofp/libgcc.a(_dvmd_tls.o)

.debug_aranges  0x0000000000000000      0x590
 .debug_aranges
                0x0000000000000000       0x48 build/startup.o
 .debug_aranges
                0x0000000000000048       0x60 build/main.o
 .debug_aranges
                0x00000000000000a8       0x48 build/uart.o
 .debug_aranges
                0x00000000000000f0       0x28 build/system_stm32f0xx.o
 .debug_aranges
                0x0000000000000118       0x48 build/stm32f0xx_it.o
 .debug_aranges
                0x0000000000000160       0x30 build/stm32f0xx_hal_msp.o
 .debug_aranges
                0x0000000000000190       0xd0 build/stm32f0xx_hal.o
 .debug_aranges
                0x0000000000000260      0x138 build/stm32f0xx_hal_can.o
 .debug_aranges
                0x0000000000000398       0xc0 build/stm32f0xx_hal_cortex.o
 .debug_aranges
                0x0000000000000458       0x58 build/stm32f0xx_hal_gpio.o
 .debug_aranges
                0x00000000000004b0       0x80 build/stm32f0xx_hal_rcc.o
 .debug_aranges
                0x0000000000000530       0x20 /usr/lib/gcc/arm-none-eabi/9.2.1/../../../arm-none-eabi/lib/thumb/v6-m/nofp/libc_nano.a(lib_a-memset.o)
 .debug_aranges
                0x0000000000000550       0x20 /usr/lib/gcc/arm-none-eabi/9.2.1/thumb/v6-m/nofp/libgcc.a(_udivsi3.o)
 .debug_aranges
                0x0000000000000570       0x20 /usr/lib/gcc/arm-none-eabi/9.2.1/thumb/v6-m/nofp/libgcc.a(_dvmd_tls.o)

.debug_ranges   0x0000000000000000      0x480
 .debug_ranges  0x0000000000000000       0x38 build/startup.o
 .debug_ranges  0x0000000000000038       0x50 build/main.o
 .debug_ranges  0x0000000000000088       0x38 build/uart.o
 .debug_ranges  0x00000000000000c0       0x18 build/system_stm32f0xx.o
 .debug_ranges  0x00000000000000d8       0x38 build/stm32f0xx_it.o
 .debug_ranges  0x0000000000000110       0x20 build/stm32f0xx_hal_msp.o
 .debug_ranges  0x0000000000000130       0xc0 build/stm32f0xx_hal.o
 .debug_ranges  0x00000000000001f0      0x128 build/stm32f0xx_hal_can.o
 .debug_ranges  0x0000000000000318       0xb0 build/stm32f0xx_hal_cortex.o
 .debug_ranges  0x00000000000003c8       0x48 build/stm32f0xx_hal_gpio.o
 .debug_ranges  0x0000000000000410       0x70 build/stm32f0xx_hal_rcc.o

.debug_line     0x0000000000000000     0x32bd
 .debug_line    0x0000000000000000      0x172 build/startup.o
 .debug_line    0x0000000000000172      0x384 build/main.o
 .debug_line    0x00000000000004f6      0x1ad build/uart.o
 .debug_line    0x00000000000006a3      0x157 build/system_stm32f0xx.o
 .debug_line    0x00000000000007fa      0x1e9 build/stm32f0xx_it.o
 .debug_line    0x00000000000009e3      0x206 build/stm32f0xx_hal_msp.o
 .debug_line    0x0000000000000be9      0x409 build/stm32f0xx_hal.o
 .debug_line    0x0000000000000ff2      0xbc5 build/stm32f0xx_hal_can.o
 .debug_line    0x0000000000001bb7      0x495 build/stm32f0xx_hal_cortex.o
 .debug_line    0x000000000000204c      0x58f build/stm32f0xx_hal_gpio.o
 .debug_line    0x00000000000025db      0x989 build/stm32f0xx_hal_rcc.o
 .debug_line    0x0000000000002f64      0x28d /usr/lib/gcc/arm-none-eabi/9.2.1/../../../arm-none-eabi/lib/thumb/v6-m/nofp/libc_nano.a(lib_a-memset.o)
 .debug_line    0x00000000000031f1       0x6c /usr/lib/gcc/arm-none-eabi/9.2.1/thumb/v6-m/nofp/libgcc.a(_udivsi3.o)
 .debug_line    0x000000000000325d       0x60 /usr/lib/gcc/arm-none-eabi/9.2.1/thumb/v6-m/nofp/libgcc.a(_dvmd_tls.o)

.debug_str      0x0000000000000000     0x2291
 .debug_str     0x0000000000000000      0x25a build/startup.o
                                        0x26d (size before relaxing)
 .debug_str     0x000000000000025a      0x900 build/main.o
                                        0xc68 (size before relaxing)
 .debug_str     0x0000000000000b5a      0x266 build/uart.o
                                        0x608 (size before relaxing)
 .debug_str     0x0000000000000dc0       0x59 build/system_stm32f0xx.o
                                        0x2fa (size before relaxing)
 .debug_str     0x0000000000000e19       0x71 build/stm32f0xx_it.o
                                        0x76b (size before relaxing)
 .debug_str     0x0000000000000e8a       0xa7 build/stm32f0xx_hal_msp.o
                                        0xa1e (size before relaxing)
 .debug_str     0x0000000000000f31      0x214 build/stm32f0xx_hal.o
                                        0x905 (size before relaxing)
 .debug_str     0x0000000000001145      0x402 build/stm32f0xx_hal_can.o
                                        0xd22 (size before relaxing)
 .debug_str     0x0000000000001547      0x21d build/stm32f0xx_hal_cortex.o
                                        0x856 (size before relaxing)
 .debug_str     0x0000000000001764      0x12b build/stm32f0xx_hal_gpio.o
                                        0x68a (size before relaxing)
 .debug_str     0x000000000000188f      0x1ce build/stm32f0xx_hal_rcc.o
                                        0x89e (size before relaxing)
 .debug_str     0x0000000000001a5d      0x791 /usr/lib/gcc/arm-none-eabi/9.2.1/../../../arm-none-eabi/lib/thumb/v6-m/nofp/libc_nano.a(lib_a-memset.o)
                                        0x90c (size before relaxing)
 .debug_str     0x00000000000021ee       0xa3 /usr/lib/gcc/arm-none-eabi/9.2.1/thumb/v6-m/nofp/libgcc.a(_udivsi3.o)
 .debug_str     0x0000000000002291       0xa3 /usr/lib/gcc/arm-none-eabi/9.2.1/thumb/v6-m/nofp/libgcc.a(_dvmd_tls.o)

.comment        0x0000000000000000       0x59
 .comment       0x0000000000000000       0x59 build/startup.o
                                         0x5a (size before relaxing)
 .comment       0x0000000000000059       0x5a build/main.o
 .comment       0x0000000000000059       0x5a build/uart.o
 .comment       0x0000000000000059       0x5a build/system_stm32f0xx.o
 .comment       0x0000000000000059       0x5a build/stm32f0xx_it.o
 .comment       0x0000000000000059       0x5a build/stm32f0xx_hal_msp.o
 .comment       0x0000000000000059       0x5a build/stm32f0xx_hal.o
 .comment       0x0000000000000059       0x5a build/stm32f0xx_hal_can.o
 .comment       0x0000000000000059       0x5a build/stm32f0xx_hal_cortex.o
 .comment       0x0000000000000059       0x5a build/stm32f0xx_hal_gpio.o
 .comment       0x0000000000000059       0x5a build/stm32f0xx_hal_rcc.o
 .comment       0x0000000000000059       0x5a /usr/lib/gcc/arm-none-eabi/9.2.1/../../../arm-none-eabi/lib/thumb/v6-m/nofp/libc_nano.a(lib_a-memset.o)

.ARM.attributes
                0x0000000000000000       0x2c
 .ARM.attributes
                0x0000000000000000       0x2b build/startup.o
 .ARM.attributes
                0x000000000000002b       0x2b build/main.o
 .ARM.attributes
                0x0000000000000056       0x2b build/uart.o
 .ARM.attributes
                0x0000000000000081       0x2b build/system_stm32f0xx.o
 .ARM.attributes
                0x00000000000000ac       0x2b build/stm32f0xx_it.o
 .ARM.attributes
                0x00000000000000d7       0x2b build/stm32f0xx_hal_msp.o
 .ARM.attributes
                0x0000000000000102       0x2b build/stm32f0xx_hal.o
 .ARM.attributes
                0x000000000000012d       0x2b build/stm32f0xx_hal_can.o
 .ARM.attributes
                0x0000000000000158       0x2b build/stm32f0xx_hal_cortex.o
 .ARM.attributes
                0x0000000000000183       0x2b build/stm32f0xx_hal_gpio.o
 .ARM.attributes
                0x00000000000001ae       0x2b build/stm32f0xx_hal_rcc.o
 .ARM.attributes
                0x00000000000001d9       0x2c /usr/lib/gcc/arm-none-eabi/9.2.1/../../../arm-none-eabi/lib/thumb/v6-m/nofp/libc_nano.a(lib_a-memset.o)
 .ARM.attributes
                0x0000000000000205       0x1e /usr/lib/gcc/arm-none-eabi/9.2.1/thumb/v6-m/nofp/libgcc.a(_udivsi3.o)
 .ARM.attributes
                0x0000000000000223       0x1e /usr/lib/gcc/arm-none-eabi/9.2.1/thumb/v6-m/nofp/libgcc.a(_dvmd_tls.o)

.debug_frame    0x0000000000000000     0x10e8
 .debug_frame   0x0000000000000000       0xb4 build/startup.o
 .debug_frame   0x00000000000000b4      0x128 build/main.o
 .debug_frame   0x00000000000001dc       0xcc build/uart.o
 .debug_frame   0x00000000000002a8       0x4c build/system_stm32f0xx.o
 .debug_frame   0x00000000000002f4       0xb8 build/stm32f0xx_it.o
 .debug_frame   0x00000000000003ac       0x70 build/stm32f0xx_hal_msp.o
 .debug_frame   0x000000000000041c      0x2a4 build/stm32f0xx_hal.o
 .debug_frame   0x00000000000006c0      0x490 build/stm32f0xx_hal_can.o
 .debug_frame   0x0000000000000b50      0x2a0 build/stm32f0xx_hal_cortex.o
 .debug_frame   0x0000000000000df0      0x110 build/stm32f0xx_hal_gpio.o
 .debug_frame   0x0000000000000f00      0x198 build/stm32f0xx_hal_rcc.o
 .debug_frame   0x0000000000001098       0x30 /usr/lib/gcc/arm-none-eabi/9.2.1/../../../arm-none-eabi/lib/thumb/v6-m/nofp/libc_nano.a(lib_a-memset.o)
 .debug_frame   0x00000000000010c8       0x20 /usr/lib/gcc/arm-none-eabi/9.2.1/thumb/v6-m/nofp/libgcc.a(_udivsi3.o)

.debug_loc      0x0000000000000000      0x2d9
 .debug_loc     0x0000000000000000      0x2d9 /usr/lib/gcc/arm-none-eabi/9.2.1/../../../arm-none-eabi/lib/thumb/v6-m/nofp/libc_nano.a(lib_a-memset.o)
